; Function Attrs: nounwind uwtable
define ptr @l_Lean_FindLevelMVar_visitLevel(ptr noundef %0, ptr noundef %1, ptr noundef %2) local_unnamed_addr #0 {
  %4 = ptrtoint ptr %2 to i64
  %5 = and i64 %4, 1
  %.not.i23 = icmp eq i64 %5, 0
  br i1 %.not.i23, label %9, label %6

6:                                                ; preds = %3
  %7 = lshr i64 %4, 1
  %8 = trunc i64 %7 to i32
  br label %lean_obj_tag.exit

9:                                                ; preds = %3
  %10 = getelementptr i8, ptr %2, i64 4
  %.val.i = load i32, ptr %10, align 4
  %11 = lshr i32 %.val.i, 24
  br label %lean_obj_tag.exit

lean_obj_tag.exit:                                ; preds = %6, %9
  %.0.i = phi i32 [ %8, %6 ], [ %11, %9 ]
  %12 = icmp eq i32 %.0.i, 0
  br i1 %12, label %13, label %37

13:                                               ; preds = %lean_obj_tag.exit
  %14 = tail call zeroext i8 @l_Lean_Level_hasMVar(ptr noundef %1) #3
  %15 = icmp eq i8 %14, 0
  br i1 %15, label %16, label %35

16:                                               ; preds = %13
  %17 = ptrtoint ptr %1 to i64
  %18 = and i64 %17, 1
  %.not28 = icmp eq i64 %18, 0
  br i1 %.not28, label %19, label %lean_dec.exit

19:                                               ; preds = %16
  %20 = load i32, ptr %1, align 4, !tbaa !4
  %21 = icmp sgt i32 %20, 1
  br i1 %21, label %22, label %24, !prof !9

22:                                               ; preds = %19
  %23 = add nsw i32 %20, -1
  store i32 %23, ptr %1, align 4, !tbaa !4
  br label %lean_dec.exit

24:                                               ; preds = %19
  %.not.i21 = icmp eq i32 %20, 0
  br i1 %.not.i21, label %lean_dec.exit, label %25

25:                                               ; preds = %24
  tail call void @lean_dec_ref_cold(ptr noundef nonnull %1) #3
  br label %lean_dec.exit

lean_dec.exit:                                    ; preds = %25, %24, %22, %16
  %26 = ptrtoint ptr %0 to i64
  %27 = and i64 %26, 1
  %.not29 = icmp eq i64 %27, 0
  br i1 %.not29, label %28, label %lean_dec.exit14

28:                                               ; preds = %lean_dec.exit
  %29 = load i32, ptr %0, align 4, !tbaa !4
  %30 = icmp sgt i32 %29, 1
  br i1 %30, label %31, label %33, !prof !9

31:                                               ; preds = %28
  %32 = add nsw i32 %29, -1
  store i32 %32, ptr %0, align 4, !tbaa !4
  br label %lean_dec.exit14

33:                                               ; preds = %28
  %.not.i19 = icmp eq i32 %29, 0
  br i1 %.not.i19, label %lean_dec.exit14, label %34

34:                                               ; preds = %33
  tail call void @lean_dec_ref_cold(ptr noundef nonnull %0) #3
  br label %lean_dec.exit14

35:                                               ; preds = %13
  %36 = tail call ptr @l_Lean_FindLevelMVar_mainLevel(ptr noundef %0, ptr noundef %1, ptr noundef %2)
  br label %lean_dec.exit14

37:                                               ; preds = %lean_obj_tag.exit
  %38 = ptrtoint ptr %1 to i64
  %39 = and i64 %38, 1
  %.not = icmp eq i64 %39, 0
  br i1 %.not, label %40, label %lean_dec.exit15

40:                                               ; preds = %37
  %41 = load i32, ptr %1, align 4, !tbaa !4
  %42 = icmp sgt i32 %41, 1
  br i1 %42, label %43, label %45, !prof !9

43:                                               ; preds = %40
  %44 = add nsw i32 %41, -1
  store i32 %44, ptr %1, align 4, !tbaa !4
  br label %lean_dec.exit15

45:                                               ; preds = %40
  %.not.i17 = icmp eq i32 %41, 0
  br i1 %.not.i17, label %lean_dec.exit15, label %46

46:                                               ; preds = %45
  tail call void @lean_dec_ref_cold(ptr noundef nonnull %1) #3
  br label %lean_dec.exit15

lean_dec.exit15:                                  ; preds = %46, %45, %43, %37
  %47 = ptrtoint ptr %0 to i64
  %48 = and i64 %47, 1
  %.not26 = icmp eq i64 %48, 0
  br i1 %.not26, label %49, label %lean_dec.exit16

49:                                               ; preds = %lean_dec.exit15
  %50 = load i32, ptr %0, align 4, !tbaa !4
  %51 = icmp sgt i32 %50, 1
  br i1 %51, label %52, label %54, !prof !9

52:                                               ; preds = %49
  %53 = add nsw i32 %50, -1
  store i32 %53, ptr %0, align 4, !tbaa !4
  br label %lean_dec.exit16

54:                                               ; preds = %49
  %.not.i = icmp eq i32 %50, 0
  br i1 %.not.i, label %lean_dec.exit16, label %55

55:                                               ; preds = %54
  tail call void @lean_dec_ref_cold(ptr noundef nonnull %0) #3
  br label %lean_dec.exit16

lean_dec.exit16:                                  ; preds = %55, %54, %52, %lean_dec.exit15
  br i1 %.not.i23, label %56, label %lean_dec.exit14

56:                                               ; preds = %lean_dec.exit16
  %.val.i24 = load i32, ptr %2, align 4, !tbaa !4
  %57 = icmp sgt i32 %.val.i24, 0
  br i1 %57, label %58, label %60, !prof !9

58:                                               ; preds = %56
  %59 = add nuw i32 %.val.i24, 1
  store i32 %59, ptr %2, align 4, !tbaa !4
  br label %lean_dec.exit14

60:                                               ; preds = %56
  %.not.i25 = icmp eq i32 %.val.i24, 0
  br i1 %.not.i25, label %lean_dec.exit14, label %61

61:                                               ; preds = %60
  tail call void @lean_inc_ref_cold(ptr noundef nonnull %2) #3
  br label %lean_dec.exit14

lean_dec.exit14:                                  ; preds = %lean_dec.exit16, %58, %60, %61, %lean_dec.exit, %31, %33, %34, %35
  %.1 = phi ptr [ %36, %35 ], [ %2, %34 ], [ %2, %33 ], [ %2, %31 ], [ %2, %lean_dec.exit ], [ %2, %61 ], [ %2, %60 ], [ %2, %58 ], [ %2, %lean_dec.exit16 ]
  ret ptr %.1
}